; Function Attrs: mustprogress nofree norecurse nosync nounwind willreturn memory(read, inaccessiblemem: none) uwtable
define dso_local noundef i32 @_Z19cmExpr_yyget_columnPv(ptr noundef readonly captures(none) %0) local_unnamed_addr #11 {
  %2 = getelementptr inbounds nuw i8, ptr %0, i64 40
  %3 = load ptr, ptr %2, align 8
  %.not = icmp eq ptr %3, null
  br i1 %.not, label %.critedge, label %4

4:                                                ; preds = %1
  %5 = getelementptr inbounds nuw i8, ptr %0, i64 24
  %6 = load i64, ptr %5, align 8
  %7 = getelementptr inbounds ptr, ptr %3, i64 %6
  %8 = load ptr, ptr %7, align 8
  %9 = icmp eq ptr %8, null
  br i1 %9, label %.critedge, label %10

10:                                               ; preds = %4
  %11 = getelementptr inbounds nuw i8, ptr %8, i64 48
  %12 = load i32, ptr %11, align 8
  br label %.critedge

.critedge:                                        ; preds = %1, %4, %10
  %.0 = phi i32 [ %12, %10 ], [ 0, %4 ], [ 0, %1 ]
  ret i32 %.0
}